; Function Attrs: mustprogress uwtable
define dso_local void @_ZN5vcpkg15LocalizedString8from_rawENS_10StringViewE(ptr dead_on_unwind noalias writable sret(%"struct.vcpkg::LocalizedString") align 8 %0, ptr %1, i64 %2) local_unnamed_addr #3 align 2 personality ptr @__gxx_personality_v0 {
  %4 = alloca %"class.std::allocator", align 1
  call void @llvm.lifetime.start.p0(i64 1, ptr nonnull %4)
  call void @_ZNSaIcEC1Ev(ptr noundef nonnull align 1 dereferenceable(1) %4) #25
  invoke void @_ZNSt7__cxx1112basic_stringIcSt11char_traitsIcESaIcEEC1EPKcmRKS3_(ptr noundef nonnull align 8 dereferenceable(32) %0, ptr noundef %1, i64 noundef %2, ptr noundef nonnull align 1 dereferenceable(1) %4)
          to label %_ZN5vcpkg15LocalizedStringC2ENS_10StringViewE.exit unwind label %5

5:                                                ; preds = %3
  %6 = landingpad { ptr, i32 }
          cleanup
  call void @_ZNSaIcED1Ev(ptr noundef nonnull align 1 dereferenceable(1) %4) #25
  resume { ptr, i32 } %6

_ZN5vcpkg15LocalizedStringC2ENS_10StringViewE.exit: ; preds = %3
  call void @_ZNSaIcED1Ev(ptr noundef nonnull align 1 dereferenceable(1) %4) #25
  call void @llvm.lifetime.end.p0(i64 1, ptr nonnull %4)
  ret void
}